; Function Attrs: mustprogress uwtable
define noundef double @_ZNK8QuantLib24GridModelLocalVolSurface9maxStrikeEv(ptr nocapture noundef nonnull readonly align 8 dereferenceable(248) %this) unnamed_addr #6 align 2 {
entry:
  %localVol_ = getelementptr inbounds nuw i8, ptr %this, i64 232
  %0 = load ptr, ptr %localVol_, align 8, !tbaa !125
  %cmp.not.i = icmp eq ptr %0, null
  br i1 %cmp.not.i, label %cond.false.i, label %_ZNK5boost10shared_ptrIN8QuantLib21LocalVolTermStructureEEptEv.exit, !prof !56

cond.false.i:                                     ; preds = %entry
  tail call void @_ZN5boost16assertion_failedEPKcS1_S1_l(ptr noundef nonnull @.str.10, ptr noundef nonnull @__PRETTY_FUNCTION__._ZNK5boost10shared_ptrIN8QuantLib21LocalVolTermStructureEEptEv, ptr noundef nonnull @.str.11, i64 noundef 784)
  %.pre.i = load ptr, ptr %localVol_, align 8, !tbaa !125
  br label %_ZNK5boost10shared_ptrIN8QuantLib21LocalVolTermStructureEEptEv.exit

_ZNK5boost10shared_ptrIN8QuantLib21LocalVolTermStructureEEptEv.exit: ; preds = %entry, %cond.false.i
  %1 = phi ptr [ %0, %entry ], [ %.pre.i, %cond.false.i ]
  %vtable = load ptr, ptr %1, align 8, !tbaa !49
  %vfn = getelementptr inbounds i8, ptr %vtable, i64 88
  %2 = load ptr, ptr %vfn, align 8
  %call2 = tail call noundef double %2(ptr noundef nonnull align 8 dereferenceable(68) %1)
  ret double %call2
}